target datalayout = "e-m:e-p270:32:32-p271:32:32-p272:64:64-i64:64-i128:128-f80:128-n8:16:32:64-S128"
target triple = "x86_64-pc-linux-gnu"

%struct.ntlmdata = type { i32, [8 x i8], i32, ptr }

@.str.2 = private unnamed_addr constant [1 x i8] zeroinitializer, align 1
@.str.3 = private unnamed_addr constant [61 x i8] c"NTLMSSP%c\01%c%c%c%c%c%c%c%c%c%c%c%c%c%c%c%c%c%c%c%c%c%c%c%s%s\00", align 1
@Curl_cfree = external global ptr, align 8

; Function Attrs: nounwind uwtable
define hidden void @Curl_auth_cleanup_ntlm(ptr noundef %0) #0 {
  %2 = alloca ptr, align 8
  store ptr %0, ptr %2, align 8, !tbaa !10
  br label %3

3:                                                ; preds = %1
  %4 = load ptr, ptr @Curl_cfree, align 8, !tbaa !89
  %5 = load ptr, ptr %2, align 8, !tbaa !10
  %6 = getelementptr inbounds nuw %struct.ntlmdata, ptr %5, i32 0, i32 3
  %7 = load ptr, ptr %6, align 8, !tbaa !90
  call void %4(ptr noundef %7)
  %8 = load ptr, ptr %2, align 8, !tbaa !10
  %9 = getelementptr inbounds nuw %struct.ntlmdata, ptr %8, i32 0, i32 3
  store ptr null, ptr %9, align 8, !tbaa !90
  br label %10

10:                                               ; preds = %3
  %11 = load ptr, ptr %2, align 8, !tbaa !10
  %12 = getelementptr inbounds nuw %struct.ntlmdata, ptr %11, i32 0, i32 2
  store i32 0, ptr %12, align 4, !tbaa !91
  ret void
}

; Function Attrs: nounwind uwtable
define hidden i32 @Curl_auth_create_ntlm_type1_message(ptr noundef %0, ptr noundef %1, ptr noundef %2, ptr noundef %3, ptr noundef %4, ptr noundef %5, ptr noundef %6) #0 {
  %8 = alloca i32, align 4
  %9 = alloca ptr, align 8
  %10 = alloca ptr, align 8
  %11 = alloca ptr, align 8
  %12 = alloca ptr, align 8
  %13 = alloca ptr, align 8
  %14 = alloca ptr, align 8
  %15 = alloca ptr, align 8
  %16 = alloca i64, align 8
  %17 = alloca ptr, align 8
  %18 = alloca ptr, align 8
  %19 = alloca ptr, align 8
  %20 = alloca i64, align 8
  %21 = alloca i64, align 8
  %22 = alloca i64, align 8
  %23 = alloca i64, align 8
  %24 = alloca i32, align 4
  store ptr %0, ptr %9, align 8, !tbaa !3
  store ptr %1, ptr %10, align 8, !tbaa !14
  store ptr %2, ptr %11, align 8, !tbaa !14
  store ptr %3, ptr %12, align 8, !tbaa !14
  store ptr %4, ptr %13, align 8, !tbaa !14
  store ptr %5, ptr %14, align 8, !tbaa !10
  store ptr %6, ptr %15, align 8, !tbaa !8
  call void @llvm.lifetime.start.p0(i64 8, ptr %16) #6
  call void @llvm.lifetime.start.p0(i64 8, ptr %17) #6
  call void @llvm.lifetime.start.p0(i64 8, ptr %18) #6
  store ptr @.str.2, ptr %18, align 8, !tbaa !14
  call void @llvm.lifetime.start.p0(i64 8, ptr %19) #6
  store ptr @.str.2, ptr %19, align 8, !tbaa !14
  call void @llvm.lifetime.start.p0(i64 8, ptr %20) #6
  store i64 0, ptr %20, align 8, !tbaa !16
  call void @llvm.lifetime.start.p0(i64 8, ptr %21) #6
  store i64 0, ptr %21, align 8, !tbaa !16
  call void @llvm.lifetime.start.p0(i64 8, ptr %22) #6
  store i64 0, ptr %22, align 8, !tbaa !16
  call void @llvm.lifetime.start.p0(i64 8, ptr %23) #6
  %25 = load i64, ptr %22, align 8, !tbaa !16
  %26 = load i64, ptr %20, align 8, !tbaa !16
  %27 = add i64 %25, %26
  store i64 %27, ptr %23, align 8, !tbaa !16
  %28 = load ptr, ptr %14, align 8, !tbaa !10
  call void @Curl_auth_cleanup_ntlm(ptr noundef %28)
  %29 = load i64, ptr %21, align 8, !tbaa !16
  %30 = and i64 %29, 255
  %31 = trunc i64 %30 to i32
  %32 = load i64, ptr %21, align 8, !tbaa !16
  %33 = lshr i64 %32, 8
  %34 = and i64 %33, 255
  %35 = trunc i64 %34 to i32
  %36 = load i64, ptr %21, align 8, !tbaa !16
  %37 = and i64 %36, 255
  %38 = trunc i64 %37 to i32
  %39 = load i64, ptr %21, align 8, !tbaa !16
  %40 = lshr i64 %39, 8
  %41 = and i64 %40, 255
  %42 = trunc i64 %41 to i32
  %43 = load i64, ptr %23, align 8, !tbaa !16
  %44 = and i64 %43, 255
  %45 = trunc i64 %44 to i32
  %46 = load i64, ptr %23, align 8, !tbaa !16
  %47 = lshr i64 %46, 8
  %48 = and i64 %47, 255
  %49 = trunc i64 %48 to i32
  %50 = load i64, ptr %20, align 8, !tbaa !16
  %51 = and i64 %50, 255
  %52 = trunc i64 %51 to i32
  %53 = load i64, ptr %20, align 8, !tbaa !16
  %54 = lshr i64 %53, 8
  %55 = and i64 %54, 255
  %56 = trunc i64 %55 to i32
  %57 = load i64, ptr %20, align 8, !tbaa !16
  %58 = and i64 %57, 255
  %59 = trunc i64 %58 to i32
  %60 = load i64, ptr %20, align 8, !tbaa !16
  %61 = lshr i64 %60, 8
  %62 = and i64 %61, 255
  %63 = trunc i64 %62 to i32
  %64 = load i64, ptr %22, align 8, !tbaa !16
  %65 = and i64 %64, 255
  %66 = trunc i64 %65 to i32
  %67 = load i64, ptr %22, align 8, !tbaa !16
  %68 = lshr i64 %67, 8
  %69 = and i64 %68, 255
  %70 = trunc i64 %69 to i32
  %71 = load ptr, ptr %18, align 8, !tbaa !14
  %72 = load ptr, ptr %19, align 8, !tbaa !14
  %73 = call ptr (ptr, ...) @curl_maprintf(ptr noundef @.str.3, i32 noundef 0, i32 noundef 0, i32 noundef 0, i32 noundef 0, i32 noundef 6, i32 noundef 130, i32 noundef 8, i32 noundef 0, i32 noundef %31, i32 noundef %35, i32 noundef %38, i32 noundef %42, i32 noundef %45, i32 noundef %49, i32 noundef 0, i32 noundef 0, i32 noundef %52, i32 noundef %56, i32 noundef %59, i32 noundef %63, i32 noundef %66, i32 noundef %70, i32 noundef 0, i32 noundef 0, ptr noundef %71, ptr noundef %72)
  store ptr %73, ptr %17, align 8, !tbaa !14
  %74 = load ptr, ptr %17, align 8, !tbaa !14
  %75 = icmp ne ptr %74, null
  br i1 %75, label %77, label %76

76:                                               ; preds = %7
  store i32 27, ptr %8, align 4
  store i32 1, ptr %24, align 4
  br label %88

77:                                               ; preds = %7
  %78 = load i64, ptr %20, align 8, !tbaa !16
  %79 = add i64 32, %78
  %80 = load i64, ptr %21, align 8, !tbaa !16
  %81 = add i64 %79, %80
  store i64 %81, ptr %16, align 8, !tbaa !16
  br label %82

82:                                               ; preds = %77
  br label %83

83:                                               ; preds = %82
  br label %84

84:                                               ; preds = %83
  %85 = load ptr, ptr %15, align 8, !tbaa !8
  %86 = load ptr, ptr %17, align 8, !tbaa !14
  %87 = load i64, ptr %16, align 8, !tbaa !16
  call void @Curl_bufref_set(ptr noundef %85, ptr noundef %86, i64 noundef %87, ptr noundef @curl_free)
  store i32 0, ptr %8, align 4
  store i32 1, ptr %24, align 4
  br label %88

88:                                               ; preds = %84, %76
  call void @llvm.lifetime.end.p0(i64 8, ptr %23) #6
  call void @llvm.lifetime.end.p0(i64 8, ptr %22) #6
  call void @llvm.lifetime.end.p0(i64 8, ptr %21) #6
  call void @llvm.lifetime.end.p0(i64 8, ptr %20) #6
  call void @llvm.lifetime.end.p0(i64 8, ptr %19) #6
  call void @llvm.lifetime.end.p0(i64 8, ptr %18) #6
  call void @llvm.lifetime.end.p0(i64 8, ptr %17) #6
  call void @llvm.lifetime.end.p0(i64 8, ptr %16) #6
  %89 = load i32, ptr %8, align 4
  ret i32 %89
}